target datalayout = "e-m:e-p270:32:32-p271:32:32-p272:64:64-i64:64-i128:128-f80:128-n8:16:32:64-S128"
target triple = "x86_64-pc-linux-gnu"

%struct.nstime_t = type { i64, i32 }
%struct.LA_TmpInfo = type { i8, %struct.nstime_t, i32, i32, i32 }
%struct.wtap_dumper = type { ptr, i32, i32, i32, i32, i8, i64, ptr, ptr, ptr, ptr, ptr, ptr, ptr, ptr, ptr, ptr, ptr, ptr, ptr, i32, i32, i32 }

; Function Attrs: null_pointer_is_valid sspstrong uwtable
define internal zeroext i1 @lanalyzer_dump_open(ptr noundef %0, ptr noundef %1, ptr noundef %2) #0 {
  %4 = alloca i1, align 1
  %5 = alloca ptr, align 8
  %6 = alloca ptr, align 8
  %7 = alloca ptr, align 8
  %8 = alloca i32, align 4
  %9 = alloca ptr, align 8
  %10 = alloca i32, align 4
  store ptr %0, ptr %5, align 8
  store ptr %1, ptr %6, align 8
  store ptr %2, ptr %7, align 8
  call void @llvm.lifetime.start.p0(i64 4, ptr %8) #11
  call void @llvm.lifetime.start.p0(i64 8, ptr %9) #11
  %11 = call noalias ptr @g_malloc(i64 noundef 40) #12
  store ptr %11, ptr %9, align 8
  %12 = load ptr, ptr %9, align 8
  %13 = icmp ne ptr %12, null
  br i1 %13, label %18, label %14

14:                                               ; preds = %3
  %15 = call ptr @__errno_location() #14
  %16 = load i32, ptr %15, align 4
  %17 = load ptr, ptr %6, align 8
  store i32 %16, ptr %17, align 4
  store i1 false, ptr %4, align 1
  store i32 1, ptr %10, align 4
  br label %40

18:                                               ; preds = %3
  %19 = load ptr, ptr %9, align 8
  %20 = getelementptr inbounds nuw %struct.LA_TmpInfo, ptr %19, i32 0, i32 0
  store i8 0, ptr %20, align 8
  %21 = load ptr, ptr %9, align 8
  %22 = load ptr, ptr %5, align 8
  %23 = getelementptr inbounds nuw %struct.wtap_dumper, ptr %22, i32 0, i32 7
  store ptr %21, ptr %23, align 8
  %24 = load ptr, ptr %5, align 8
  %25 = getelementptr inbounds nuw %struct.wtap_dumper, ptr %24, i32 0, i32 10
  store ptr @lanalyzer_dump, ptr %25, align 8
  %26 = load ptr, ptr %5, align 8
  %27 = getelementptr inbounds nuw %struct.wtap_dumper, ptr %26, i32 0, i32 11
  store ptr @lanalyzer_dump_finish, ptr %27, align 8
  store i32 3018, ptr %8, align 4
  %28 = load ptr, ptr %5, align 8
  %29 = load i32, ptr %8, align 4
  %30 = sext i32 %29 to i64
  %31 = load ptr, ptr %6, align 8
  %32 = call i64 @wtap_dump_file_seek(ptr noundef %28, i64 noundef %30, i32 noundef 0, ptr noundef %31)
  %33 = icmp eq i64 %32, -1
  br i1 %33, label %34, label %35

34:                                               ; preds = %18
  store i1 false, ptr %4, align 1
  store i32 1, ptr %10, align 4
  br label %40

35:                                               ; preds = %18
  %36 = load i32, ptr %8, align 4
  %37 = sext i32 %36 to i64
  %38 = load ptr, ptr %5, align 8
  %39 = getelementptr inbounds nuw %struct.wtap_dumper, ptr %38, i32 0, i32 6
  store i64 %37, ptr %39, align 8
  store i1 true, ptr %4, align 1
  store i32 1, ptr %10, align 4
  br label %40

40:                                               ; preds = %35, %34, %14
  call void @llvm.lifetime.end.p0(i64 8, ptr %9) #11
  call void @llvm.lifetime.end.p0(i64 4, ptr %8) #11
  %41 = load i1, ptr %4, align 1
  ret i1 %41
}