; Function Attrs: null_pointer_is_valid sspstrong uwtable
define internal noundef zeroext i1 @lanalyzer_dump_open(ptr noundef %0, ptr noundef %1, ptr readnone captures(none) %2) #0 {
  %4 = tail call noalias dereferenceable_or_null(40) ptr @g_malloc(i64 noundef 40) #11
  %.not = icmp eq ptr %4, null
  br i1 %.not, label %5, label %8

5:                                                ; preds = %3
  %6 = tail call ptr @__errno_location() #12
  %7 = load i32, ptr %6, align 4
  store i32 %7, ptr %1, align 4
  br label %16

8:                                                ; preds = %3
  store i8 0, ptr %4, align 8
  %9 = getelementptr inbounds nuw i8, ptr %0, i64 40
  store ptr %4, ptr %9, align 8
  %10 = getelementptr inbounds nuw i8, ptr %0, i64 64
  store ptr @lanalyzer_dump, ptr %10, align 8
  %11 = getelementptr inbounds nuw i8, ptr %0, i64 72
  store ptr @lanalyzer_dump_finish, ptr %11, align 8
  %12 = tail call i64 @wtap_dump_file_seek(ptr noundef %0, i64 noundef 3018, i32 noundef 0, ptr noundef %1)
  %13 = icmp eq i64 %12, -1
  br i1 %13, label %16, label %14

14:                                               ; preds = %8
  %15 = getelementptr inbounds nuw i8, ptr %0, i64 32
  store i64 3018, ptr %15, align 8
  br label %16

16:                                               ; preds = %8, %14, %5
  %.0 = phi i1 [ true, %14 ], [ false, %5 ], [ false, %8 ]
  ret i1 %.0
}